; Function Attrs: nounwind uwtable
define dso_local range(i32 -1, 1) i32 @zend_parse_parameter(i32 noundef %0, i32 noundef %1, ptr noundef %2, ptr noundef %3, ...) local_unnamed_addr #2 {
  %5 = alloca ptr, align 8
  %6 = alloca [1 x %struct.__va_list_tag], align 16
  store ptr %3, ptr %5, align 8, !tbaa !44
  call void @llvm.lifetime.start.p0(i64 24, ptr nonnull %6) #34
  call void @llvm.va_start.p0(ptr nonnull %6)
  %7 = call fastcc i32 @zend_parse_arg(i32 noundef %1, ptr noundef %2, ptr noundef %6, ptr noundef %5, i32 noundef %0)
  call void @llvm.va_end.p0(ptr nonnull %6)
  call void @llvm.lifetime.end.p0(i64 24, ptr nonnull %6) #34
  ret i32 %7
}